; Function Attrs: nounwind uwtable
define ptr @l_Lake_nameToSharedLib(ptr noundef %0) local_unnamed_addr #0 {
  %2 = load i8, ptr @l_System_Platform_isWindows, align 1, !tbaa !4
  %3 = icmp eq i8 %2, 0
  br i1 %3, label %4, label %9

4:                                                ; preds = %1
  %5 = load i8, ptr @l_System_Platform_isOSX, align 1, !tbaa !4
  %6 = icmp eq i8 %5, 0
  %7 = load ptr, ptr @l_Lake_nameToStaticLib___closed__1, align 8, !tbaa !7
  %8 = tail call ptr @lean_string_append(ptr noundef %7, ptr noundef %0) #3
  %l_Lake_nameToSharedLib___closed__1.l_Lake_nameToSharedLib___closed__2 = select i1 %6, ptr @l_Lake_nameToSharedLib___closed__1, ptr @l_Lake_nameToSharedLib___closed__2
  br label %12

9:                                                ; preds = %1
  %10 = load ptr, ptr @l_Lake_nameToStaticLib___closed__3, align 8, !tbaa !7
  %11 = tail call ptr @lean_string_append(ptr noundef %10, ptr noundef %0) #3
  br label %12

12:                                               ; preds = %4, %9
  %l_Lake_nameToSharedLib___closed__1.sink = phi ptr [ @l_Lake_nameToSharedLib___closed__3, %9 ], [ %l_Lake_nameToSharedLib___closed__1.l_Lake_nameToSharedLib___closed__2, %4 ]
  %.sink = phi ptr [ %11, %9 ], [ %8, %4 ]
  %13 = load ptr, ptr %l_Lake_nameToSharedLib___closed__1.sink, align 8, !tbaa !7
  %14 = tail call ptr @lean_string_append(ptr noundef %.sink, ptr noundef %13) #3
  ret ptr %14
}